target datalayout = "e-m:e-p270:32:32-p271:32:32-p272:64:64-i64:64-i128:128-f80:128-n8:16:32:64-S128"
target triple = "x86_64-pc-linux-gnu"

%struct.Kit_Mux_t_ = type { i32 }
%struct.Vec_Int_t_ = type { i32, i32, ptr }
%struct.Vec_Ptr_t_ = type { i32, i32, ptr }
%union.anon.0 = type { %struct.Kit_Mux_t_ }

@.str = private unnamed_addr constant [41 x i8] c"Kit_TruthCompose(): Internal failure!!!\0A\00", align 1

; Function Attrs: inlinehint nounwind uwtable
define internal i32 @Kit_TruthWordNum(i32 noundef %0) #3 {
  %2 = alloca i32, align 4
  store i32 %0, ptr %2, align 4, !tbaa !8
  %3 = load i32, ptr %2, align 4, !tbaa !8
  %4 = icmp sle i32 %3, 5
  br i1 %4, label %5, label %6

5:                                                ; preds = %1
  br label %10

6:                                                ; preds = %1
  %7 = load i32, ptr %2, align 4, !tbaa !8
  %8 = sub nsw i32 %7, 5
  %9 = shl i32 1, %8
  br label %10

10:                                               ; preds = %6, %5
  %11 = phi i32 [ 1, %5 ], [ %9, %6 ]
  ret i32 %11
}

; Function Attrs: inlinehint nounwind uwtable
define internal void @Kit_TruthNot(ptr noundef %0, ptr noundef %1, i32 noundef %2) #3 {
  %4 = alloca ptr, align 8
  %5 = alloca ptr, align 8
  %6 = alloca i32, align 4
  %7 = alloca i32, align 4
  store ptr %0, ptr %4, align 8, !tbaa !17
  store ptr %1, ptr %5, align 8, !tbaa !17
  store i32 %2, ptr %6, align 4, !tbaa !8
  call void @llvm.lifetime.start.p0(i64 4, ptr %7) #8
  %8 = load i32, ptr %6, align 4, !tbaa !8
  %9 = call i32 @Kit_TruthWordNum(i32 noundef %8)
  %10 = sub nsw i32 %9, 1
  store i32 %10, ptr %7, align 4, !tbaa !8
  br label %11

11:                                               ; preds = %25, %3
  %12 = load i32, ptr %7, align 4, !tbaa !8
  %13 = icmp sge i32 %12, 0
  br i1 %13, label %14, label %28

14:                                               ; preds = %11
  %15 = load ptr, ptr %5, align 8, !tbaa !17
  %16 = load i32, ptr %7, align 4, !tbaa !8
  %17 = sext i32 %16 to i64
  %18 = getelementptr inbounds i32, ptr %15, i64 %17
  %19 = load i32, ptr %18, align 4, !tbaa !8
  %20 = xor i32 %19, -1
  %21 = load ptr, ptr %4, align 8, !tbaa !17
  %22 = load i32, ptr %7, align 4, !tbaa !8
  %23 = sext i32 %22 to i64
  %24 = getelementptr inbounds i32, ptr %21, i64 %23
  store i32 %20, ptr %24, align 4, !tbaa !8
  br label %25

25:                                               ; preds = %14
  %26 = load i32, ptr %7, align 4, !tbaa !8
  %27 = add nsw i32 %26, -1
  store i32 %27, ptr %7, align 4, !tbaa !8
  br label %11, !llvm.loop !48

28:                                               ; preds = %11
  call void @llvm.lifetime.end.p0(i64 4, ptr %7) #8
  ret void
}

; Function Attrs: inlinehint nounwind uwtable
define internal void @Kit_TruthMuxPhase(ptr noundef %0, ptr noundef %1, ptr noundef %2, ptr noundef %3, i32 noundef %4, i32 noundef %5) #3 {
  %7 = alloca ptr, align 8
  %8 = alloca ptr, align 8
  %9 = alloca ptr, align 8
  %10 = alloca ptr, align 8
  %11 = alloca i32, align 4
  %12 = alloca i32, align 4
  %13 = alloca i32, align 4
  store ptr %0, ptr %7, align 8, !tbaa !17
  store ptr %1, ptr %8, align 8, !tbaa !17
  store ptr %2, ptr %9, align 8, !tbaa !17
  store ptr %3, ptr %10, align 8, !tbaa !17
  store i32 %4, ptr %11, align 4, !tbaa !8
  store i32 %5, ptr %12, align 4, !tbaa !8
  call void @llvm.lifetime.start.p0(i64 4, ptr %13) #8
  %14 = load i32, ptr %12, align 4, !tbaa !8
  %15 = icmp ne i32 %14, 0
  br i1 %15, label %16, label %57

16:                                               ; preds = %6
  %17 = load i32, ptr %11, align 4, !tbaa !8
  %18 = call i32 @Kit_TruthWordNum(i32 noundef %17)
  %19 = sub nsw i32 %18, 1
  store i32 %19, ptr %13, align 4, !tbaa !8
  br label %20

20:                                               ; preds = %53, %16
  %21 = load i32, ptr %13, align 4, !tbaa !8
  %22 = icmp sge i32 %21, 0
  br i1 %22, label %23, label %56

23:                                               ; preds = %20
  %24 = load ptr, ptr %8, align 8, !tbaa !17
  %25 = load i32, ptr %13, align 4, !tbaa !8
  %26 = sext i32 %25 to i64
  %27 = getelementptr inbounds i32, ptr %24, i64 %26
  %28 = load i32, ptr %27, align 4, !tbaa !8
  %29 = xor i32 %28, -1
  %30 = load ptr, ptr %10, align 8, !tbaa !17
  %31 = load i32, ptr %13, align 4, !tbaa !8
  %32 = sext i32 %31 to i64
  %33 = getelementptr inbounds i32, ptr %30, i64 %32
  %34 = load i32, ptr %33, align 4, !tbaa !8
  %35 = xor i32 %34, -1
  %36 = and i32 %29, %35
  %37 = load ptr, ptr %9, align 8, !tbaa !17
  %38 = load i32, ptr %13, align 4, !tbaa !8
  %39 = sext i32 %38 to i64
  %40 = getelementptr inbounds i32, ptr %37, i64 %39
  %41 = load i32, ptr %40, align 4, !tbaa !8
  %42 = load ptr, ptr %10, align 8, !tbaa !17
  %43 = load i32, ptr %13, align 4, !tbaa !8
  %44 = sext i32 %43 to i64
  %45 = getelementptr inbounds i32, ptr %42, i64 %44
  %46 = load i32, ptr %45, align 4, !tbaa !8
  %47 = and i32 %41, %46
  %48 = or i32 %36, %47
  %49 = load ptr, ptr %7, align 8, !tbaa !17
  %50 = load i32, ptr %13, align 4, !tbaa !8
  %51 = sext i32 %50 to i64
  %52 = getelementptr inbounds i32, ptr %49, i64 %51
  store i32 %48, ptr %52, align 4, !tbaa !8
  br label %53

53:                                               ; preds = %23
  %54 = load i32, ptr %13, align 4, !tbaa !8
  %55 = add nsw i32 %54, -1
  store i32 %55, ptr %13, align 4, !tbaa !8
  br label %20, !llvm.loop !52

56:                                               ; preds = %20
  br label %97

57:                                               ; preds = %6
  %58 = load i32, ptr %11, align 4, !tbaa !8
  %59 = call i32 @Kit_TruthWordNum(i32 noundef %58)
  %60 = sub nsw i32 %59, 1
  store i32 %60, ptr %13, align 4, !tbaa !8
  br label %61

61:                                               ; preds = %93, %57
  %62 = load i32, ptr %13, align 4, !tbaa !8
  %63 = icmp sge i32 %62, 0
  br i1 %63, label %64, label %96

64:                                               ; preds = %61
  %65 = load ptr, ptr %8, align 8, !tbaa !17
  %66 = load i32, ptr %13, align 4, !tbaa !8
  %67 = sext i32 %66 to i64
  %68 = getelementptr inbounds i32, ptr %65, i64 %67
  %69 = load i32, ptr %68, align 4, !tbaa !8
  %70 = load ptr, ptr %10, align 8, !tbaa !17
  %71 = load i32, ptr %13, align 4, !tbaa !8
  %72 = sext i32 %71 to i64
  %73 = getelementptr inbounds i32, ptr %70, i64 %72
  %74 = load i32, ptr %73, align 4, !tbaa !8
  %75 = xor i32 %74, -1
  %76 = and i32 %69, %75
  %77 = load ptr, ptr %9, align 8, !tbaa !17
  %78 = load i32, ptr %13, align 4, !tbaa !8
  %79 = sext i32 %78 to i64
  %80 = getelementptr inbounds i32, ptr %77, i64 %79
  %81 = load i32, ptr %80, align 4, !tbaa !8
  %82 = load ptr, ptr %10, align 8, !tbaa !17
  %83 = load i32, ptr %13, align 4, !tbaa !8
  %84 = sext i32 %83 to i64
  %85 = getelementptr inbounds i32, ptr %82, i64 %84
  %86 = load i32, ptr %85, align 4, !tbaa !8
  %87 = and i32 %81, %86
  %88 = or i32 %76, %87
  %89 = load ptr, ptr %7, align 8, !tbaa !17
  %90 = load i32, ptr %13, align 4, !tbaa !8
  %91 = sext i32 %90 to i64
  %92 = getelementptr inbounds i32, ptr %89, i64 %91
  store i32 %88, ptr %92, align 4, !tbaa !8
  br label %93

93:                                               ; preds = %64
  %94 = load i32, ptr %13, align 4, !tbaa !8
  %95 = add nsw i32 %94, -1
  store i32 %95, ptr %13, align 4, !tbaa !8
  br label %61, !llvm.loop !53

96:                                               ; preds = %61
  br label %97

97:                                               ; preds = %96, %56
  call void @llvm.lifetime.end.p0(i64 4, ptr %13) #8
  ret void
}

; Function Attrs: inlinehint nounwind uwtable
define internal i32 @Kit_Int2Mux(i32 noundef %0) #3 {
  %2 = alloca %struct.Kit_Mux_t_, align 4
  %3 = alloca i32, align 4
  %4 = alloca %union.anon.0, align 4
  store i32 %0, ptr %3, align 4, !tbaa !8
  call void @llvm.lifetime.start.p0(i64 4, ptr %4) #8
  %5 = load i32, ptr %3, align 4, !tbaa !8
  store i32 %5, ptr %4, align 4, !tbaa !40
  call void @llvm.memcpy.p0.p0.i64(ptr align 4 %2, ptr align 4 %4, i64 4, i1 false), !tbaa.struct !39
  call void @llvm.lifetime.end.p0(i64 4, ptr %4) #8
  %6 = getelementptr inbounds nuw %struct.Kit_Mux_t_, ptr %2, i32 0, i32 0
  %7 = load i32, ptr %6, align 4
  ret i32 %7
}

; Function Attrs: inlinehint nounwind uwtable
define internal i32 @Vec_IntEntry(ptr noundef %0, i32 noundef %1) #3 {
  %3 = alloca ptr, align 8
  %4 = alloca i32, align 4
  store ptr %0, ptr %3, align 8, !tbaa !24
  store i32 %1, ptr %4, align 4, !tbaa !8
  %5 = load ptr, ptr %3, align 8, !tbaa !24
  %6 = getelementptr inbounds nuw %struct.Vec_Int_t_, ptr %5, i32 0, i32 2
  %7 = load ptr, ptr %6, align 8, !tbaa !38
  %8 = load i32, ptr %4, align 4, !tbaa !8
  %9 = sext i32 %8 to i64
  %10 = getelementptr inbounds i32, ptr %7, i64 %9
  %11 = load i32, ptr %10, align 4, !tbaa !8
  ret i32 %11
}

; Function Attrs: inlinehint nounwind uwtable
define internal i32 @Vec_IntSize(ptr noundef %0) #3 {
  %2 = alloca ptr, align 8
  store ptr %0, ptr %2, align 8, !tbaa !24
  %3 = load ptr, ptr %2, align 8, !tbaa !24
  %4 = getelementptr inbounds nuw %struct.Vec_Int_t_, ptr %3, i32 0, i32 1
  %5 = load i32, ptr %4, align 4, !tbaa !35
  ret i32 %5
}

; Function Attrs: inlinehint nounwind uwtable
define internal void @Kit_TruthFill(ptr noundef %0, i32 noundef %1) #3 {
  %3 = alloca ptr, align 8
  %4 = alloca i32, align 4
  %5 = alloca i32, align 4
  store ptr %0, ptr %3, align 8, !tbaa !17
  store i32 %1, ptr %4, align 4, !tbaa !8
  call void @llvm.lifetime.start.p0(i64 4, ptr %5) #8
  %6 = load i32, ptr %4, align 4, !tbaa !8
  %7 = call i32 @Kit_TruthWordNum(i32 noundef %6)
  %8 = sub nsw i32 %7, 1
  store i32 %8, ptr %5, align 4, !tbaa !8
  br label %9

9:                                                ; preds = %17, %2
  %10 = load i32, ptr %5, align 4, !tbaa !8
  %11 = icmp sge i32 %10, 0
  br i1 %11, label %12, label %20

12:                                               ; preds = %9
  %13 = load ptr, ptr %3, align 8, !tbaa !17
  %14 = load i32, ptr %5, align 4, !tbaa !8
  %15 = sext i32 %14 to i64
  %16 = getelementptr inbounds i32, ptr %13, i64 %15
  store i32 -1, ptr %16, align 4, !tbaa !8
  br label %17

17:                                               ; preds = %12
  %18 = load i32, ptr %5, align 4, !tbaa !8
  %19 = add nsw i32 %18, -1
  store i32 %19, ptr %5, align 4, !tbaa !8
  br label %9, !llvm.loop !47

20:                                               ; preds = %9
  call void @llvm.lifetime.end.p0(i64 4, ptr %5) #8
  ret void
}

; Function Attrs: inlinehint nounwind uwtable
define internal ptr @Vec_PtrEntry(ptr noundef %0, i32 noundef %1) #3 {
  %3 = alloca ptr, align 8
  %4 = alloca i32, align 4
  store ptr %0, ptr %3, align 8, !tbaa !41
  store i32 %1, ptr %4, align 4, !tbaa !8
  %5 = load ptr, ptr %3, align 8, !tbaa !41
  %6 = getelementptr inbounds nuw %struct.Vec_Ptr_t_, ptr %5, i32 0, i32 2
  %7 = load ptr, ptr %6, align 8, !tbaa !44
  %8 = load i32, ptr %4, align 4, !tbaa !8
  %9 = sext i32 %8 to i64
  %10 = getelementptr inbounds ptr, ptr %7, i64 %9
  %11 = load ptr, ptr %10, align 8, !tbaa !46
  ret ptr %11
}

; Function Attrs: nounwind uwtable
define ptr @Kit_TruthToCloud(ptr noundef %0, ptr noundef %1, i32 noundef %2) #0 {
  %4 = alloca ptr, align 8
  %5 = alloca ptr, align 8
  %6 = alloca i32, align 4
  %7 = alloca ptr, align 8
  store ptr %0, ptr %4, align 8, !tbaa !3
  store ptr %1, ptr %5, align 8, !tbaa !17
  store i32 %2, ptr %6, align 4, !tbaa !8
  call void @llvm.lifetime.start.p0(i64 8, ptr %7) #8
  %8 = load ptr, ptr %4, align 8, !tbaa !3
  %9 = load ptr, ptr %5, align 8, !tbaa !17
  %10 = load i32, ptr %6, align 4, !tbaa !8
  %11 = load i32, ptr %6, align 4, !tbaa !8
  %12 = call ptr @Kit_TruthToCloud_rec(ptr noundef %8, ptr noundef %9, i32 noundef %10, i32 noundef %11)
  store ptr %12, ptr %7, align 8, !tbaa !16
  %13 = load ptr, ptr %7, align 8, !tbaa !16
  call void @llvm.lifetime.end.p0(i64 8, ptr %7) #8
  ret ptr %13
}

; Function Attrs: nounwind uwtable
define ptr @Kit_TruthCompose(ptr noundef %0, ptr noundef %1, i32 noundef %2, ptr noundef %3, i32 noundef %4, ptr noundef %5, ptr noundef %6) #0 {
  %8 = alloca ptr, align 8
  %9 = alloca ptr, align 8
  %10 = alloca i32, align 4
  %11 = alloca ptr, align 8
  %12 = alloca i32, align 4
  %13 = alloca ptr, align 8
  %14 = alloca ptr, align 8
  %15 = alloca ptr, align 8
  %16 = alloca ptr, align 8
  %17 = alloca ptr, align 8
  %18 = alloca ptr, align 8
  %19 = alloca %struct.Kit_Mux_t_, align 4
  %20 = alloca i32, align 4
  %21 = alloca i32, align 4
  %22 = alloca i32, align 4
  %23 = alloca %struct.Kit_Mux_t_, align 4
  store ptr %0, ptr %8, align 8, !tbaa !3
  store ptr %1, ptr %9, align 8, !tbaa !17
  store i32 %2, ptr %10, align 4, !tbaa !8
  store ptr %3, ptr %11, align 8, !tbaa !49
  store i32 %4, ptr %12, align 4, !tbaa !8
  store ptr %5, ptr %13, align 8, !tbaa !41
  store ptr %6, ptr %14, align 8, !tbaa !24
  call void @llvm.lifetime.start.p0(i64 8, ptr %15) #8
  call void @llvm.lifetime.start.p0(i64 8, ptr %16) #8
  call void @llvm.lifetime.start.p0(i64 8, ptr %17) #8
  call void @llvm.lifetime.start.p0(i64 8, ptr %18) #8
  call void @llvm.lifetime.start.p0(i64 4, ptr %19) #8
  call void @llvm.lifetime.start.p0(i64 4, ptr %20) #8
  call void @llvm.lifetime.start.p0(i64 4, ptr %21) #8
  call void @llvm.lifetime.start.p0(i64 4, ptr %22) #8
  %24 = load ptr, ptr %8, align 8, !tbaa !3
  call void @Cloud_Restart(ptr noundef %24)
  %25 = load ptr, ptr %8, align 8, !tbaa !3
  %26 = load ptr, ptr %9, align 8, !tbaa !17
  %27 = load i32, ptr %10, align 4, !tbaa !8
  %28 = call ptr @Kit_TruthToCloud(ptr noundef %25, ptr noundef %26, i32 noundef %27)
  store ptr %28, ptr %15, align 8, !tbaa !16
  %29 = load ptr, ptr %8, align 8, !tbaa !3
  %30 = load ptr, ptr %15, align 8, !tbaa !16
  %31 = load ptr, ptr %14, align 8, !tbaa !24
  %32 = call i32 @Kit_CreateCloud(ptr noundef %29, ptr noundef %30, ptr noundef %31)
  store i32 %32, ptr %22, align 4, !tbaa !8
  %33 = load i32, ptr %22, align 4, !tbaa !8
  %34 = icmp eq i32 %33, 0
  br i1 %34, label %35, label %37

35:                                               ; preds = %7
  %36 = call i32 (ptr, ...) @printf(ptr noundef @.str)
  br label %37

37:                                               ; preds = %35, %7
  %38 = load ptr, ptr %13, align 8, !tbaa !41
  %39 = call ptr @Vec_PtrEntry(ptr noundef %38, i32 noundef 0)
  store ptr %39, ptr %16, align 8, !tbaa !17
  %40 = load ptr, ptr %16, align 8, !tbaa !17
  %41 = load i32, ptr %12, align 4, !tbaa !8
  call void @Kit_TruthFill(ptr noundef %40, i32 noundef %41)
  store i32 1, ptr %20, align 4, !tbaa !8
  br label %42

42:                                               ; preds = %86, %37
  %43 = load i32, ptr %20, align 4, !tbaa !8
  %44 = load ptr, ptr %14, align 8, !tbaa !24
  %45 = call i32 @Vec_IntSize(ptr noundef %44)
  %46 = icmp slt i32 %43, %45
  br i1 %46, label %47, label %51

47:                                               ; preds = %42
  %48 = load ptr, ptr %14, align 8, !tbaa !24
  %49 = load i32, ptr %20, align 4, !tbaa !8
  %50 = call i32 @Vec_IntEntry(ptr noundef %48, i32 noundef %49)
  store i32 %50, ptr %21, align 4, !tbaa !8
  br label %51

51:                                               ; preds = %47, %42
  %52 = phi i1 [ false, %42 ], [ true, %47 ]
  br i1 %52, label %53, label %89

53:                                               ; preds = %51
  call void @llvm.lifetime.start.p0(i64 4, ptr %23) #8
  %54 = load i32, ptr %21, align 4, !tbaa !8
  %55 = call i32 @Kit_Int2Mux(i32 noundef %54)
  %56 = getelementptr inbounds nuw %struct.Kit_Mux_t_, ptr %23, i32 0, i32 0
  store i32 %55, ptr %56, align 4
  call void @llvm.memcpy.p0.p0.i64(ptr align 4 %19, ptr align 4 %23, i64 4, i1 false), !tbaa.struct !39
  call void @llvm.lifetime.end.p0(i64 4, ptr %23) #8
  %57 = load ptr, ptr %13, align 8, !tbaa !41
  %58 = load i32, ptr %19, align 4
  %59 = lshr i32 %58, 18
  %60 = and i32 %59, 4095
  %61 = call ptr @Vec_PtrEntry(ptr noundef %57, i32 noundef %60)
  store ptr %61, ptr %17, align 8, !tbaa !17
  %62 = load ptr, ptr %13, align 8, !tbaa !41
  %63 = load i32, ptr %19, align 4
  %64 = lshr i32 %63, 6
  %65 = and i32 %64, 4095
  %66 = call ptr @Vec_PtrEntry(ptr noundef %62, i32 noundef %65)
  store ptr %66, ptr %18, align 8, !tbaa !17
  %67 = load ptr, ptr %13, align 8, !tbaa !41
  %68 = load i32, ptr %20, align 4, !tbaa !8
  %69 = call ptr @Vec_PtrEntry(ptr noundef %67, i32 noundef %68)
  store ptr %69, ptr %16, align 8, !tbaa !17
  %70 = load ptr, ptr %16, align 8, !tbaa !17
  %71 = load ptr, ptr %17, align 8, !tbaa !17
  %72 = load ptr, ptr %18, align 8, !tbaa !17
  %73 = load ptr, ptr %11, align 8, !tbaa !49
  %74 = load i32, ptr %10, align 4, !tbaa !8
  %75 = sub nsw i32 %74, 1
  %76 = load i32, ptr %19, align 4
  %77 = and i32 %76, 63
  %78 = sub nsw i32 %75, %77
  %79 = sext i32 %78 to i64
  %80 = getelementptr inbounds ptr, ptr %73, i64 %79
  %81 = load ptr, ptr %80, align 8, !tbaa !17
  %82 = load i32, ptr %12, align 4, !tbaa !8
  %83 = load i32, ptr %19, align 4
  %84 = lshr i32 %83, 30
  %85 = and i32 %84, 1
  call void @Kit_TruthMuxPhase(ptr noundef %70, ptr noundef %71, ptr noundef %72, ptr noundef %81, i32 noundef %82, i32 noundef %85)
  br label %86

86:                                               ; preds = %53
  %87 = load i32, ptr %20, align 4, !tbaa !8
  %88 = add nsw i32 %87, 1
  store i32 %88, ptr %20, align 4, !tbaa !8
  br label %42, !llvm.loop !51

89:                                               ; preds = %51
  %90 = load i32, ptr %19, align 4
  %91 = lshr i32 %90, 31
  %92 = icmp ne i32 %91, 0
  br i1 %92, label %93, label %97

93:                                               ; preds = %89
  %94 = load ptr, ptr %16, align 8, !tbaa !17
  %95 = load ptr, ptr %16, align 8, !tbaa !17
  %96 = load i32, ptr %12, align 4, !tbaa !8
  call void @Kit_TruthNot(ptr noundef %94, ptr noundef %95, i32 noundef %96)
  br label %97

97:                                               ; preds = %93, %89
  %98 = load ptr, ptr %16, align 8, !tbaa !17
  call void @llvm.lifetime.end.p0(i64 4, ptr %22) #8
  call void @llvm.lifetime.end.p0(i64 4, ptr %21) #8
  call void @llvm.lifetime.end.p0(i64 4, ptr %20) #8
  call void @llvm.lifetime.end.p0(i64 4, ptr %19) #8
  call void @llvm.lifetime.end.p0(i64 8, ptr %18) #8
  call void @llvm.lifetime.end.p0(i64 8, ptr %17) #8
  call void @llvm.lifetime.end.p0(i64 8, ptr %16) #8
  call void @llvm.lifetime.end.p0(i64 8, ptr %15) #8
  ret ptr %98
}