; Function Attrs: nounwind uwtable
define ptr @Kit_TruthCompose(ptr noundef %0, ptr noundef %1, i32 noundef %2, ptr noundef readonly captures(none) %3, i32 noundef %4, ptr noundef readonly captures(none) %5, ptr noundef captures(none) %6) local_unnamed_addr #0 {
  tail call void @Cloud_Restart(ptr noundef %0) #8
  %8 = tail call ptr @Kit_TruthToCloud_rec(ptr noundef %0, ptr noundef %1, i32 noundef %2, i32 noundef %2)
  %9 = tail call i32 @Kit_CreateCloud(ptr noundef %0, ptr noundef %8, ptr noundef %6)
  %10 = icmp eq i32 %9, 0
  br i1 %10, label %11, label %12

11:                                               ; preds = %7
  %puts = tail call i32 @puts(ptr nonnull dereferenceable(1) @str)
  br label %12

12:                                               ; preds = %11, %7
  %13 = getelementptr i8, ptr %5, i64 8
  %.val38 = load ptr, ptr %13, align 8, !tbaa !34
  %14 = load ptr, ptr %.val38, align 8, !tbaa !36
  %15 = icmp slt i32 %4, 6
  %16 = add nsw i32 %4, -5
  %17 = shl nuw i32 1, %16
  %spec.select.i = select i1 %15, i32 1, i32 %17
  %18 = icmp slt i32 %spec.select.i, 1
  br i1 %18, label %Kit_TruthFill.exit, label %Kit_TruthFill.exit.thread

Kit_TruthFill.exit:                               ; preds = %12
  %19 = getelementptr i8, ptr %6, i64 4
  %.val3949 = load i32, ptr %19, align 4, !tbaa !20
  %20 = icmp sgt i32 %.val3949, 1
  br i1 %20, label %.lr.ph.split.us, label %.critedge

Kit_TruthFill.exit.thread:                        ; preds = %12
  %21 = zext nneg i32 %spec.select.i to i64
  %22 = shl nuw nsw i64 %21, 2
  tail call void @llvm.memset.p0.i64(ptr noundef nonnull align 4 dereferenceable(1) %14, i8 -1, i64 %22, i1 false), !tbaa !14
  %23 = getelementptr i8, ptr %6, i64 4
  %.val394957 = load i32, ptr %23, align 4, !tbaa !20
  %24 = icmp sgt i32 %.val394957, 1
  br i1 %24, label %.lr.ph.split.preheader, label %.critedge

.lr.ph.split.preheader:                           ; preds = %Kit_TruthFill.exit.thread
  %25 = getelementptr i8, ptr %6, i64 8
  %.val4060 = load ptr, ptr %25, align 8, !tbaa !24
  %26 = zext nneg i32 %spec.select.i to i64
  br label %.lr.ph.split

.lr.ph.split.us:                                  ; preds = %Kit_TruthFill.exit
  %27 = getelementptr i8, ptr %6, i64 8
  %.val40 = load ptr, ptr %27, align 8, !tbaa !24
  %28 = add nsw i32 %.val3949, -1
  %29 = zext nneg i32 %28 to i64
  %30 = getelementptr inbounds nuw i32, ptr %.val40, i64 %29
  %31 = load i32, ptr %30, align 4, !tbaa !14
  %32 = getelementptr inbounds nuw ptr, ptr %.val38, i64 %29
  %33 = load ptr, ptr %32, align 8, !tbaa !36
  br label %.critedge

.lr.ph.split:                                     ; preds = %.lr.ph.split.preheader, %Kit_TruthMuxPhase.exit
  %indvars.iv = phi i64 [ 1, %.lr.ph.split.preheader ], [ %indvars.iv.next, %Kit_TruthMuxPhase.exit ]
  %34 = getelementptr inbounds nuw i32, ptr %.val4060, i64 %indvars.iv
  %35 = load i32, ptr %34, align 4, !tbaa !14
  %36 = lshr i32 %35, 18
  %37 = and i32 %36, 4095
  %38 = zext nneg i32 %37 to i64
  %39 = getelementptr inbounds nuw ptr, ptr %.val38, i64 %38
  %40 = load ptr, ptr %39, align 8, !tbaa !36
  %41 = lshr i32 %35, 6
  %42 = and i32 %41, 4095
  %43 = zext nneg i32 %42 to i64
  %44 = getelementptr inbounds nuw ptr, ptr %.val38, i64 %43
  %45 = load ptr, ptr %44, align 8, !tbaa !36
  %46 = getelementptr inbounds nuw ptr, ptr %.val38, i64 %indvars.iv
  %47 = load ptr, ptr %46, align 8, !tbaa !36
  %48 = and i32 %35, 63
  %49 = xor i32 %48, -1
  %50 = add i32 %2, %49
  %51 = sext i32 %50 to i64
  %52 = getelementptr inbounds ptr, ptr %3, i64 %51
  %53 = load ptr, ptr %52, align 8, !tbaa !39
  %54 = and i32 %35, 1073741824
  %.not.i = icmp eq i32 %54, 0
  br i1 %.not.i, label %select.unfold26.i, label %select.unfold.i

select.unfold.i:                                  ; preds = %.lr.ph.split, %select.unfold.i
  %indvars.iv.i = phi i64 [ %indvars.iv.next.i, %select.unfold.i ], [ %26, %.lr.ph.split ]
  %indvars.iv.next.i = add nsw i64 %indvars.iv.i, -1
  %55 = getelementptr inbounds nuw i32, ptr %40, i64 %indvars.iv.next.i
  %56 = load i32, ptr %55, align 4, !tbaa !14
  %57 = getelementptr inbounds nuw i32, ptr %53, i64 %indvars.iv.next.i
  %58 = load i32, ptr %57, align 4, !tbaa !14
  %.demorgan.i = or i32 %58, %56
  %59 = xor i32 %.demorgan.i, -1
  %60 = getelementptr inbounds nuw i32, ptr %45, i64 %indvars.iv.next.i
  %61 = load i32, ptr %60, align 4, !tbaa !14
  %62 = and i32 %61, %58
  %63 = or i32 %62, %59
  %64 = getelementptr inbounds nuw i32, ptr %47, i64 %indvars.iv.next.i
  store i32 %63, ptr %64, align 4, !tbaa !14
  %65 = icmp samesign ugt i64 %indvars.iv.i, 1
  br i1 %65, label %select.unfold.i, label %Kit_TruthMuxPhase.exit, !llvm.loop !40

select.unfold26.i:                                ; preds = %.lr.ph.split, %select.unfold26.i
  %indvars.iv34.i = phi i64 [ %indvars.iv.next35.i, %select.unfold26.i ], [ %26, %.lr.ph.split ]
  %indvars.iv.next35.i = add nsw i64 %indvars.iv34.i, -1
  %66 = getelementptr inbounds nuw i32, ptr %40, i64 %indvars.iv.next35.i
  %67 = load i32, ptr %66, align 4, !tbaa !14
  %68 = getelementptr inbounds nuw i32, ptr %53, i64 %indvars.iv.next35.i
  %69 = load i32, ptr %68, align 4, !tbaa !14
  %70 = xor i32 %69, -1
  %71 = and i32 %67, %70
  %72 = getelementptr inbounds nuw i32, ptr %45, i64 %indvars.iv.next35.i
  %73 = load i32, ptr %72, align 4, !tbaa !14
  %74 = and i32 %73, %69
  %75 = or i32 %74, %71
  %76 = getelementptr inbounds nuw i32, ptr %47, i64 %indvars.iv.next35.i
  store i32 %75, ptr %76, align 4, !tbaa !14
  %77 = icmp samesign ugt i64 %indvars.iv34.i, 1
  br i1 %77, label %select.unfold26.i, label %Kit_TruthMuxPhase.exit, !llvm.loop !41

Kit_TruthMuxPhase.exit:                           ; preds = %select.unfold.i, %select.unfold26.i
  %indvars.iv.next = add nuw nsw i64 %indvars.iv, 1
  %.val39 = load i32, ptr %23, align 4, !tbaa !20
  %78 = sext i32 %.val39 to i64
  %79 = icmp slt i64 %indvars.iv.next, %78
  br i1 %79, label %.lr.ph.split, label %.critedge, !llvm.loop !42

.critedge:                                        ; preds = %Kit_TruthMuxPhase.exit, %Kit_TruthFill.exit.thread, %.lr.ph.split.us, %Kit_TruthFill.exit
  %.sroa.06.0.lcssa = phi i32 [ undef, %Kit_TruthFill.exit ], [ %31, %.lr.ph.split.us ], [ undef, %Kit_TruthFill.exit.thread ], [ %35, %Kit_TruthMuxPhase.exit ]
  %.0.lcssa = phi ptr [ %14, %Kit_TruthFill.exit ], [ %33, %.lr.ph.split.us ], [ %14, %Kit_TruthFill.exit.thread ], [ %47, %Kit_TruthMuxPhase.exit ]
  %.not = icmp sgt i32 %.sroa.06.0.lcssa, -1
  %brmerge = or i1 %18, %.not
  br i1 %brmerge, label %Kit_TruthNot.exit, label %select.unfold.preheader.i43

select.unfold.preheader.i43:                      ; preds = %.critedge
  %80 = zext nneg i32 %spec.select.i to i64
  br label %select.unfold.i44

select.unfold.i44:                                ; preds = %select.unfold.i44, %select.unfold.preheader.i43
  %indvars.iv.i45 = phi i64 [ %80, %select.unfold.preheader.i43 ], [ %indvars.iv.next.i46, %select.unfold.i44 ]
  %indvars.iv.next.i46 = add nsw i64 %indvars.iv.i45, -1
  %81 = getelementptr inbounds nuw i32, ptr %.0.lcssa, i64 %indvars.iv.next.i46
  %82 = load i32, ptr %81, align 4, !tbaa !14
  %83 = xor i32 %82, -1
  store i32 %83, ptr %81, align 4, !tbaa !14
  %84 = icmp samesign ugt i64 %indvars.iv.i45, 1
  br i1 %84, label %select.unfold.i44, label %Kit_TruthNot.exit, !llvm.loop !38

Kit_TruthNot.exit:                                ; preds = %select.unfold.i44, %.critedge
  ret ptr %.0.lcssa
}